target datalayout = "e-m:e-p270:32:32-p271:32:32-p272:64:64-i64:64-i128:128-f80:128-n8:16:32:64-S128"
target triple = "x86_64-pc-linux-gnu"

%struct.Vec_Int_t_ = type { i32, i32, ptr }
%struct.Abc_Ntk_t_ = type { i32, i32, ptr, ptr, ptr, ptr, ptr, ptr, ptr, ptr, ptr, ptr, ptr, [11 x i32], i32, i32, i32, i32, ptr, i32, ptr, ptr, i32, i32, i32, double, i32, %struct.Vec_Int_t_, ptr, ptr, ptr, ptr, ptr, float, i32, ptr, ptr, ptr, ptr, ptr, ptr, ptr, ptr, ptr, ptr, ptr, ptr, ptr, ptr, ptr, ptr, ptr, ptr, ptr, ptr, ptr, ptr }

@.str.9 = private unnamed_addr constant [42 x i8] c"The LUT count (%d) should be at least 4.\0A\00", align 1
@.str.10 = private unnamed_addr constant [41 x i8] c"The LUT count (%d) should not exceed 6.\0A\00", align 1
@.str.11 = private unnamed_addr constant [19 x i8] c"*** Iteration %d:\0A\00", align 1
@.str.12 = private unnamed_addr constant [70 x i8] c"Decomposing network with %d nodes and %d max fanin count for K = %d.\0A\00", align 1
@.str.13 = private unnamed_addr constant [46 x i8] c"Abc_NtkLutmin: The network check has failed.\0A\00", align 1

; Function Attrs: inlinehint nounwind uwtable
define internal i32 @Abc_NtkNodeNum(ptr noundef %0) #2 {
  %2 = alloca ptr, align 8
  store ptr %0, ptr %2, align 8, !tbaa !41
  %3 = load ptr, ptr %2, align 8, !tbaa !41
  %4 = getelementptr inbounds nuw %struct.Abc_Ntk_t_, ptr %3, i32 0, i32 13
  %5 = getelementptr inbounds [11 x i32], ptr %4, i64 0, i64 7
  %6 = load i32, ptr %5, align 4, !tbaa !8
  ret i32 %6
}

; Function Attrs: inlinehint nounwind uwtable
define internal i32 @Abc_NtkIsBddLogic(ptr noundef %0) #2 {
  %2 = alloca ptr, align 8
  store ptr %0, ptr %2, align 8, !tbaa !41
  %3 = load ptr, ptr %2, align 8, !tbaa !41
  %4 = getelementptr inbounds nuw %struct.Abc_Ntk_t_, ptr %3, i32 0, i32 1
  %5 = load i32, ptr %4, align 4, !tbaa !105
  %6 = icmp eq i32 %5, 2
  br i1 %6, label %7, label %12

7:                                                ; preds = %1
  %8 = load ptr, ptr %2, align 8, !tbaa !41
  %9 = getelementptr inbounds nuw %struct.Abc_Ntk_t_, ptr %8, i32 0, i32 0
  %10 = load i32, ptr %9, align 8, !tbaa !104
  %11 = icmp eq i32 %10, 2
  br label %12

12:                                               ; preds = %7, %1
  %13 = phi i1 [ false, %1 ], [ %11, %7 ]
  %14 = zext i1 %13 to i32
  ret i32 %14
}

; Function Attrs: inlinehint nounwind uwtable
define internal i32 @Abc_NtkIsStrash(ptr noundef %0) #2 {
  %2 = alloca ptr, align 8
  store ptr %0, ptr %2, align 8, !tbaa !41
  %3 = load ptr, ptr %2, align 8, !tbaa !41
  %4 = getelementptr inbounds nuw %struct.Abc_Ntk_t_, ptr %3, i32 0, i32 0
  %5 = load i32, ptr %4, align 8, !tbaa !104
  %6 = icmp eq i32 %5, 3
  %7 = zext i1 %6 to i32
  ret i32 %7
}

; Function Attrs: nounwind uwtable
define ptr @Abc_NtkLutmin(ptr noundef %0, i32 noundef %1, i32 noundef %2, i32 noundef %3) #0 {
  %5 = alloca ptr, align 8
  %6 = alloca ptr, align 8
  %7 = alloca i32, align 4
  %8 = alloca i32, align 4
  %9 = alloca i32, align 4
  %10 = alloca ptr, align 8
  %11 = alloca ptr, align 8
  %12 = alloca i32, align 4
  %13 = alloca i32, align 4
  store ptr %0, ptr %6, align 8, !tbaa !41
  store i32 %1, ptr %7, align 4, !tbaa !8
  store i32 %2, ptr %8, align 4, !tbaa !8
  store i32 %3, ptr %9, align 4, !tbaa !8
  call void @llvm.lifetime.start.p0(i64 8, ptr %10) #12
  call void @llvm.lifetime.start.p0(i64 8, ptr %11) #12
  call void @llvm.lifetime.start.p0(i64 4, ptr %12) #12
  %14 = load i32, ptr %7, align 4, !tbaa !8
  %15 = icmp slt i32 %14, 4
  br i1 %15, label %16, label %19

16:                                               ; preds = %4
  %17 = load i32, ptr %7, align 4, !tbaa !8
  %18 = call i32 (ptr, ...) @printf(ptr noundef @.str.9, i32 noundef %17)
  store ptr null, ptr %5, align 8
  store i32 1, ptr %13, align 4
  br label %95

19:                                               ; preds = %4
  %20 = load i32, ptr %7, align 4, !tbaa !8
  %21 = icmp sgt i32 %20, 6
  br i1 %21, label %22, label %25

22:                                               ; preds = %19
  %23 = load i32, ptr %7, align 4, !tbaa !8
  %24 = call i32 (ptr, ...) @printf(ptr noundef @.str.10, i32 noundef %23)
  store ptr null, ptr %5, align 8
  store i32 1, ptr %13, align 4
  br label %95

25:                                               ; preds = %19
  %26 = load ptr, ptr %6, align 8, !tbaa !41
  %27 = call i32 @Abc_NtkIsStrash(ptr noundef %26)
  %28 = icmp ne i32 %27, 0
  br i1 %28, label %29, label %32

29:                                               ; preds = %25
  %30 = load ptr, ptr %6, align 8, !tbaa !41
  %31 = call ptr @Abc_NtkDup(ptr noundef %30)
  store ptr %31, ptr %10, align 8, !tbaa !41
  br label %35

32:                                               ; preds = %25
  %33 = load ptr, ptr %6, align 8, !tbaa !41
  %34 = call ptr @Abc_NtkStrash(ptr noundef %33, i32 noundef 0, i32 noundef 1, i32 noundef 0)
  store ptr %34, ptr %10, align 8, !tbaa !41
  br label %35

35:                                               ; preds = %32, %29
  %36 = load ptr, ptr %10, align 8, !tbaa !41
  store ptr %36, ptr %11, align 8, !tbaa !41
  %37 = load i32, ptr %8, align 4, !tbaa !8
  %38 = call ptr @Abc_NtkCollapse(ptr noundef %36, i32 noundef 10000, i32 noundef 0, i32 noundef %37, i32 noundef 0, i32 noundef 0, i32 noundef 0)
  store ptr %38, ptr %10, align 8, !tbaa !41
  %39 = load ptr, ptr %11, align 8, !tbaa !41
  call void @Abc_NtkDelete(ptr noundef %39)
  %40 = load ptr, ptr %10, align 8, !tbaa !41
  %41 = icmp eq ptr %40, null
  br i1 %41, label %42, label %43

42:                                               ; preds = %35
  store ptr null, ptr %5, align 8
  store i32 1, ptr %13, align 4
  br label %95

43:                                               ; preds = %35
  %44 = load ptr, ptr %10, align 8, !tbaa !41
  %45 = call i32 @Abc_NtkIsBddLogic(ptr noundef %44)
  %46 = icmp ne i32 %45, 0
  br i1 %46, label %50, label %47

47:                                               ; preds = %43
  %48 = load ptr, ptr %10, align 8, !tbaa !41
  %49 = call i32 @Abc_NtkToBdd(ptr noundef %48)
  br label %50

50:                                               ; preds = %47, %43
  store i32 0, ptr %12, align 4, !tbaa !8
  br label %51

51:                                               ; preds = %80, %50
  %52 = load ptr, ptr %10, align 8, !tbaa !41
  %53 = call i32 @Abc_NtkGetFaninMax(ptr noundef %52)
  %54 = load i32, ptr %7, align 4, !tbaa !8
  %55 = icmp sgt i32 %53, %54
  br i1 %55, label %56, label %83

56:                                               ; preds = %51
  %57 = load i32, ptr %9, align 4, !tbaa !8
  %58 = icmp ne i32 %57, 0
  br i1 %58, label %59, label %63

59:                                               ; preds = %56
  %60 = load i32, ptr %12, align 4, !tbaa !8
  %61 = add nsw i32 %60, 1
  %62 = call i32 (ptr, ...) @printf(ptr noundef @.str.11, i32 noundef %61)
  br label %63

63:                                               ; preds = %59, %56
  %64 = load i32, ptr %9, align 4, !tbaa !8
  %65 = icmp ne i32 %64, 0
  br i1 %65, label %66, label %73

66:                                               ; preds = %63
  %67 = load ptr, ptr %10, align 8, !tbaa !41
  %68 = call i32 @Abc_NtkNodeNum(ptr noundef %67)
  %69 = load ptr, ptr %10, align 8, !tbaa !41
  %70 = call i32 @Abc_NtkGetFaninMax(ptr noundef %69)
  %71 = load i32, ptr %7, align 4, !tbaa !8
  %72 = call i32 (ptr, ...) @printf(ptr noundef @.str.12, i32 noundef %68, i32 noundef %70, i32 noundef %71)
  br label %73

73:                                               ; preds = %66, %63
  %74 = load ptr, ptr %10, align 8, !tbaa !41
  store ptr %74, ptr %11, align 8, !tbaa !41
  %75 = load i32, ptr %7, align 4, !tbaa !8
  %76 = load i32, ptr %8, align 4, !tbaa !8
  %77 = load i32, ptr %9, align 4, !tbaa !8
  %78 = call ptr @Abc_NtkLutminInt(ptr noundef %74, i32 noundef %75, i32 noundef %76, i32 noundef %77)
  store ptr %78, ptr %10, align 8, !tbaa !41
  %79 = load ptr, ptr %11, align 8, !tbaa !41
  call void @Abc_NtkDelete(ptr noundef %79)
  br label %80

80:                                               ; preds = %73
  %81 = load i32, ptr %12, align 4, !tbaa !8
  %82 = add nsw i32 %81, 1
  store i32 %82, ptr %12, align 4, !tbaa !8
  br label %51, !llvm.loop !103

83:                                               ; preds = %51
  %84 = load ptr, ptr %10, align 8, !tbaa !41
  %85 = call i32 @Abc_NtkLogicMakeSimpleCos(ptr noundef %84, i32 noundef 0)
  %86 = load ptr, ptr %10, align 8, !tbaa !41
  %87 = call i32 @Abc_NtkFraigSweep(ptr noundef %86, i32 noundef 1, i32 noundef 0, i32 noundef 0, i32 noundef 0)
  %88 = load ptr, ptr %10, align 8, !tbaa !41
  %89 = call i32 @Abc_NtkCheck(ptr noundef %88)
  %90 = icmp ne i32 %89, 0
  br i1 %90, label %93, label %91

91:                                               ; preds = %83
  %92 = call i32 (ptr, ...) @printf(ptr noundef @.str.13)
  store ptr null, ptr %5, align 8
  store i32 1, ptr %13, align 4
  br label %95

93:                                               ; preds = %83
  %94 = load ptr, ptr %10, align 8, !tbaa !41
  store ptr %94, ptr %5, align 8
  store i32 1, ptr %13, align 4
  br label %95

95:                                               ; preds = %93, %91, %42, %22, %16
  call void @llvm.lifetime.end.p0(i64 4, ptr %12) #12
  call void @llvm.lifetime.end.p0(i64 8, ptr %11) #12
  call void @llvm.lifetime.end.p0(i64 8, ptr %10) #12
  %96 = load ptr, ptr %5, align 8
  ret ptr %96
}