; Function Attrs: nounwind uwtable
define noundef ptr @Abc_NtkLutmin(ptr noundef %0, i32 noundef %1, i32 noundef %2, i32 noundef %3) local_unnamed_addr #0 {
  %5 = icmp slt i32 %1, 4
  br i1 %5, label %6, label %8

6:                                                ; preds = %4
  %7 = tail call i32 (ptr, ...) @printf(ptr noundef nonnull dereferenceable(1) @.str.9, i32 noundef %1)
  br label %44

8:                                                ; preds = %4
  %9 = icmp samesign ugt i32 %1, 6
  br i1 %9, label %10, label %12

10:                                               ; preds = %8
  %11 = tail call i32 (ptr, ...) @printf(ptr noundef nonnull dereferenceable(1) @.str.10, i32 noundef %1)
  br label %44

12:                                               ; preds = %8
  %.val = load i32, ptr %0, align 8, !tbaa !92
  %.not = icmp eq i32 %.val, 3
  br i1 %.not, label %13, label %15

13:                                               ; preds = %12
  %14 = tail call ptr @Abc_NtkDup(ptr noundef nonnull %0) #20
  br label %17

15:                                               ; preds = %12
  %16 = tail call ptr @Abc_NtkStrash(ptr noundef nonnull %0, i32 noundef 0, i32 noundef 1, i32 noundef 0) #20
  br label %17

17:                                               ; preds = %15, %13
  %.031 = phi ptr [ %14, %13 ], [ %16, %15 ]
  %18 = tail call ptr @Abc_NtkCollapse(ptr noundef %.031, i32 noundef 10000, i32 noundef 0, i32 noundef %2, i32 noundef 0, i32 noundef 0, i32 noundef 0) #20
  tail call void @Abc_NtkDelete(ptr noundef %.031) #20
  %19 = icmp eq ptr %18, null
  br i1 %19, label %44, label %20

20:                                               ; preds = %17
  %21 = getelementptr inbounds nuw i8, ptr %18, i64 4
  %22 = load i32, ptr %21, align 4, !tbaa !93
  %23 = icmp eq i32 %22, 2
  br i1 %23, label %Abc_NtkIsBddLogic.exit, label %Abc_NtkIsBddLogic.exit.thread

Abc_NtkIsBddLogic.exit:                           ; preds = %20
  %24 = load i32, ptr %18, align 8, !tbaa !92
  %.not43 = icmp eq i32 %24, 2
  br i1 %.not43, label %26, label %Abc_NtkIsBddLogic.exit.thread

Abc_NtkIsBddLogic.exit.thread:                    ; preds = %20, %Abc_NtkIsBddLogic.exit
  %25 = tail call i32 @Abc_NtkToBdd(ptr noundef nonnull %18) #20
  br label %26

26:                                               ; preds = %Abc_NtkIsBddLogic.exit.thread, %Abc_NtkIsBddLogic.exit
  %27 = tail call i32 @Abc_NtkGetFaninMax(ptr noundef nonnull %18) #20
  %28 = icmp sgt i32 %27, %1
  br i1 %28, label %.lr.ph, label %._crit_edge

.lr.ph:                                           ; preds = %26
  %.not41 = icmp eq i32 %3, 0
  br i1 %.not41, label %.split.us, label %.split34

.split.us:                                        ; preds = %.lr.ph, %.split.us
  %.144.us = phi ptr [ %29, %.split.us ], [ %18, %.lr.ph ]
  %29 = tail call ptr @Abc_NtkLutminInt(ptr noundef %.144.us, i32 noundef %1, i32 noundef %2, i32 noundef 0)
  tail call void @Abc_NtkDelete(ptr noundef %.144.us) #20
  %30 = tail call i32 @Abc_NtkGetFaninMax(ptr noundef %29) #20
  %31 = icmp sgt i32 %30, %1
  br i1 %31, label %.split.us, label %._crit_edge, !llvm.loop !94

.split34:                                         ; preds = %.lr.ph, %.split34
  %.045 = phi i32 [ %32, %.split34 ], [ 0, %.lr.ph ]
  %.144 = phi ptr [ %37, %.split34 ], [ %18, %.lr.ph ]
  %32 = add nuw nsw i32 %.045, 1
  %33 = tail call i32 (ptr, ...) @printf(ptr noundef nonnull dereferenceable(1) @.str.11, i32 noundef %32)
  %34 = getelementptr i8, ptr %.144, i64 124
  %.1.val = load i32, ptr %34, align 4, !tbaa !32
  %35 = tail call i32 @Abc_NtkGetFaninMax(ptr noundef %.144) #20
  %36 = tail call i32 (ptr, ...) @printf(ptr noundef nonnull dereferenceable(1) @.str.12, i32 noundef %.1.val, i32 noundef %35, i32 noundef %1)
  %37 = tail call ptr @Abc_NtkLutminInt(ptr noundef %.144, i32 noundef %1, i32 noundef %2, i32 noundef %3)
  tail call void @Abc_NtkDelete(ptr noundef %.144) #20
  %38 = tail call i32 @Abc_NtkGetFaninMax(ptr noundef %37) #20
  %39 = icmp sgt i32 %38, %1
  br i1 %39, label %.split34, label %._crit_edge, !llvm.loop !94

._crit_edge:                                      ; preds = %.split34, %.split.us, %26
  %.1.lcssa = phi ptr [ %18, %26 ], [ %29, %.split.us ], [ %37, %.split34 ]
  %40 = tail call i32 @Abc_NtkLogicMakeSimpleCos(ptr noundef %.1.lcssa, i32 noundef 0) #20
  %41 = tail call i32 @Abc_NtkFraigSweep(ptr noundef %.1.lcssa, i32 noundef 1, i32 noundef 0, i32 noundef 0, i32 noundef 0) #20
  %42 = tail call i32 @Abc_NtkCheck(ptr noundef %.1.lcssa) #20
  %.not40 = icmp eq i32 %42, 0
  br i1 %.not40, label %43, label %44

43:                                               ; preds = %._crit_edge
  %puts = tail call i32 @puts(ptr nonnull dereferenceable(1) @str.1)
  br label %44

44:                                               ; preds = %._crit_edge, %17, %43, %10, %6
  %.032 = phi ptr [ null, %6 ], [ null, %10 ], [ null, %43 ], [ null, %17 ], [ %.1.lcssa, %._crit_edge ]
  ret ptr %.032
}